target datalayout = "e-m:e-p270:32:32-p271:32:32-p272:64:64-i64:64-i128:128-f80:128-n8:16:32:64-S128"
target triple = "x86_64-pc-linux-gnu"

@hf_os_type = internal global i32 0, align 4
@hf_ndps_vendor_dir = internal global i32 0, align 4
@hf_font_type = internal global i32 0, align 4
@hf_ndps_banner_name = internal global i32 0, align 4
@hf_ndps_prn_file_name = internal global i32 0, align 4
@hf_ndps_prn_dir_name = internal global i32 0, align 4
@hf_archive_type = internal global i32 0, align 4
@hf_res_type = internal global i32 0, align 4

; Function Attrs: nounwind uwtable
define internal i32 @res_add_input_data(ptr noundef %0, ptr noundef %1, i32 noundef %2) #0 {
  %4 = alloca ptr, align 8
  %5 = alloca ptr, align 8
  %6 = alloca i32, align 4
  %7 = alloca i32, align 4
  store ptr %0, ptr %4, align 8
  store ptr %1, ptr %5, align 8
  store i32 %2, ptr %6, align 4
  store i32 0, ptr %7, align 4
  %8 = load ptr, ptr %4, align 8
  %9 = load i32, ptr %6, align 4
  %10 = call i32 @tvb_get_ntohl(ptr noundef %8, i32 noundef %9)
  store i32 %10, ptr %7, align 4
  %11 = load ptr, ptr %5, align 8
  %12 = load i32, ptr @hf_res_type, align 4
  %13 = load ptr, ptr %4, align 8
  %14 = load i32, ptr %6, align 4
  %15 = load i32, ptr %7, align 4
  %16 = call ptr @proto_tree_add_uint(ptr noundef %11, i32 noundef %12, ptr noundef %13, i32 noundef %14, i32 noundef 4, i32 noundef %15)
  %17 = load i32, ptr %6, align 4
  %18 = add i32 %17, 4
  store i32 %18, ptr %6, align 4
  %19 = load i32, ptr %7, align 4
  switch i32 %19, label %95 [
    i32 0, label %20
    i32 1, label %38
    i32 2, label %49
    i32 3, label %55
    i32 4, label %75
    i32 5, label %75
  ]

20:                                               ; preds = %3
  %21 = load ptr, ptr %5, align 8
  %22 = load i32, ptr @hf_os_type, align 4
  %23 = load ptr, ptr %4, align 8
  %24 = load i32, ptr %6, align 4
  %25 = call ptr @proto_tree_add_item(ptr noundef %21, i32 noundef %22, ptr noundef %23, i32 noundef %24, i32 noundef 4, i32 noundef 0)
  %26 = load i32, ptr %6, align 4
  %27 = add i32 %26, 4
  store i32 %27, ptr %6, align 4
  %28 = load ptr, ptr %4, align 8
  %29 = load i32, ptr @hf_ndps_prn_dir_name, align 4
  %30 = load ptr, ptr %5, align 8
  %31 = load i32, ptr %6, align 4
  %32 = call i32 @ndps_string(ptr noundef %28, i32 noundef %29, ptr noundef %30, i32 noundef %31, ptr noundef null)
  store i32 %32, ptr %6, align 4
  %33 = load ptr, ptr %4, align 8
  %34 = load i32, ptr @hf_ndps_prn_file_name, align 4
  %35 = load ptr, ptr %5, align 8
  %36 = load i32, ptr %6, align 4
  %37 = call i32 @ndps_string(ptr noundef %33, i32 noundef %34, ptr noundef %35, i32 noundef %36, ptr noundef null)
  store i32 %37, ptr %6, align 4
  br label %96

38:                                               ; preds = %3
  %39 = load ptr, ptr %4, align 8
  %40 = load i32, ptr @hf_ndps_vendor_dir, align 4
  %41 = load ptr, ptr %5, align 8
  %42 = load i32, ptr %6, align 4
  %43 = call i32 @ndps_string(ptr noundef %39, i32 noundef %40, ptr noundef %41, i32 noundef %42, ptr noundef null)
  store i32 %43, ptr %6, align 4
  %44 = load ptr, ptr %4, align 8
  %45 = load i32, ptr @hf_ndps_prn_file_name, align 4
  %46 = load ptr, ptr %5, align 8
  %47 = load i32, ptr %6, align 4
  %48 = call i32 @ndps_string(ptr noundef %44, i32 noundef %45, ptr noundef %46, i32 noundef %47, ptr noundef null)
  store i32 %48, ptr %6, align 4
  br label %96

49:                                               ; preds = %3
  %50 = load ptr, ptr %4, align 8
  %51 = load i32, ptr @hf_ndps_banner_name, align 4
  %52 = load ptr, ptr %5, align 8
  %53 = load i32, ptr %6, align 4
  %54 = call i32 @ndps_string(ptr noundef %50, i32 noundef %51, ptr noundef %52, i32 noundef %53, ptr noundef null)
  store i32 %54, ptr %6, align 4
  br label %96

55:                                               ; preds = %3
  %56 = load ptr, ptr %5, align 8
  %57 = load i32, ptr @hf_os_type, align 4
  %58 = load ptr, ptr %4, align 8
  %59 = load i32, ptr %6, align 4
  %60 = call ptr @proto_tree_add_item(ptr noundef %56, i32 noundef %57, ptr noundef %58, i32 noundef %59, i32 noundef 4, i32 noundef 0)
  %61 = load i32, ptr %6, align 4
  %62 = add i32 %61, 4
  store i32 %62, ptr %6, align 4
  %63 = load ptr, ptr %5, align 8
  %64 = load i32, ptr @hf_font_type, align 4
  %65 = load ptr, ptr %4, align 8
  %66 = load i32, ptr %6, align 4
  %67 = call ptr @proto_tree_add_item(ptr noundef %63, i32 noundef %64, ptr noundef %65, i32 noundef %66, i32 noundef 4, i32 noundef 0)
  %68 = load i32, ptr %6, align 4
  %69 = add i32 %68, 4
  store i32 %69, ptr %6, align 4
  %70 = load ptr, ptr %4, align 8
  %71 = load i32, ptr @hf_ndps_prn_file_name, align 4
  %72 = load ptr, ptr %5, align 8
  %73 = load i32, ptr %6, align 4
  %74 = call i32 @ndps_string(ptr noundef %70, i32 noundef %71, ptr noundef %72, i32 noundef %73, ptr noundef null)
  store i32 %74, ptr %6, align 4
  br label %96

75:                                               ; preds = %3, %3
  %76 = load ptr, ptr %5, align 8
  %77 = load i32, ptr @hf_os_type, align 4
  %78 = load ptr, ptr %4, align 8
  %79 = load i32, ptr %6, align 4
  %80 = call ptr @proto_tree_add_item(ptr noundef %76, i32 noundef %77, ptr noundef %78, i32 noundef %79, i32 noundef 4, i32 noundef 0)
  %81 = load i32, ptr %6, align 4
  %82 = add i32 %81, 4
  store i32 %82, ptr %6, align 4
  %83 = load ptr, ptr %4, align 8
  %84 = load i32, ptr @hf_ndps_prn_dir_name, align 4
  %85 = load ptr, ptr %5, align 8
  %86 = load i32, ptr %6, align 4
  %87 = call i32 @ndps_string(ptr noundef %83, i32 noundef %84, ptr noundef %85, i32 noundef %86, ptr noundef null)
  store i32 %87, ptr %6, align 4
  %88 = load ptr, ptr %5, align 8
  %89 = load i32, ptr @hf_archive_type, align 4
  %90 = load ptr, ptr %4, align 8
  %91 = load i32, ptr %6, align 4
  %92 = call ptr @proto_tree_add_item(ptr noundef %88, i32 noundef %89, ptr noundef %90, i32 noundef %91, i32 noundef 4, i32 noundef 0)
  %93 = load i32, ptr %6, align 4
  %94 = add i32 %93, 4
  store i32 %94, ptr %6, align 4
  br label %96

95:                                               ; preds = %3
  br label %96

96:                                               ; preds = %95, %75, %55, %49, %38, %20
  %97 = load i32, ptr %6, align 4
  ret i32 %97
}