; Function Attrs: nounwind uwtable
define internal fastcc i32 @res_add_input_data(ptr noundef %0, ptr noundef %1, i32 noundef range(i32 44, 57) %2) unnamed_addr #0 {
  %4 = tail call i32 @tvb_get_ntohl(ptr noundef %0, i32 noundef %2) #6
  %5 = load i32, ptr @hf_res_type, align 4
  %6 = tail call ptr @proto_tree_add_uint(ptr noundef %1, i32 noundef %5, ptr noundef %0, i32 noundef %2, i32 noundef 4, i32 noundef %4) #6
  %7 = add nuw nsw i32 %2, 4
  switch i32 %4, label %42 [
    i32 0, label %8
    i32 1, label %16
    i32 2, label %21
    i32 3, label %24
    i32 4, label %33
    i32 5, label %33
  ]

8:                                                ; preds = %3
  %9 = load i32, ptr @hf_os_type, align 4
  %10 = tail call ptr @proto_tree_add_item(ptr noundef %1, i32 noundef %9, ptr noundef %0, i32 noundef %7, i32 noundef 4, i32 noundef 0) #6
  %11 = add nuw nsw i32 %2, 8
  %12 = load i32, ptr @hf_ndps_prn_dir_name, align 4
  %13 = tail call fastcc i32 @ndps_string(ptr noundef %0, i32 noundef %12, ptr noundef %1, i32 noundef %11, ptr noundef null)
  %14 = load i32, ptr @hf_ndps_prn_file_name, align 4
  %15 = tail call fastcc i32 @ndps_string(ptr noundef %0, i32 noundef %14, ptr noundef %1, i32 noundef %13, ptr noundef null)
  br label %42

16:                                               ; preds = %3
  %17 = load i32, ptr @hf_ndps_vendor_dir, align 4
  %18 = tail call fastcc i32 @ndps_string(ptr noundef %0, i32 noundef %17, ptr noundef %1, i32 noundef %7, ptr noundef null)
  %19 = load i32, ptr @hf_ndps_prn_file_name, align 4
  %20 = tail call fastcc i32 @ndps_string(ptr noundef %0, i32 noundef %19, ptr noundef %1, i32 noundef %18, ptr noundef null)
  br label %42

21:                                               ; preds = %3
  %22 = load i32, ptr @hf_ndps_banner_name, align 4
  %23 = tail call fastcc i32 @ndps_string(ptr noundef %0, i32 noundef %22, ptr noundef %1, i32 noundef %7, ptr noundef null)
  br label %42

24:                                               ; preds = %3
  %25 = load i32, ptr @hf_os_type, align 4
  %26 = tail call ptr @proto_tree_add_item(ptr noundef %1, i32 noundef %25, ptr noundef %0, i32 noundef %7, i32 noundef 4, i32 noundef 0) #6
  %27 = add nuw nsw i32 %2, 8
  %28 = load i32, ptr @hf_font_type, align 4
  %29 = tail call ptr @proto_tree_add_item(ptr noundef %1, i32 noundef %28, ptr noundef %0, i32 noundef %27, i32 noundef 4, i32 noundef 0) #6
  %30 = add nuw nsw i32 %2, 12
  %31 = load i32, ptr @hf_ndps_prn_file_name, align 4
  %32 = tail call fastcc i32 @ndps_string(ptr noundef %0, i32 noundef %31, ptr noundef %1, i32 noundef %30, ptr noundef null)
  br label %42

33:                                               ; preds = %3, %3
  %34 = load i32, ptr @hf_os_type, align 4
  %35 = tail call ptr @proto_tree_add_item(ptr noundef %1, i32 noundef %34, ptr noundef %0, i32 noundef %7, i32 noundef 4, i32 noundef 0) #6
  %36 = add nuw nsw i32 %2, 8
  %37 = load i32, ptr @hf_ndps_prn_dir_name, align 4
  %38 = tail call fastcc i32 @ndps_string(ptr noundef %0, i32 noundef %37, ptr noundef %1, i32 noundef %36, ptr noundef null)
  %39 = load i32, ptr @hf_archive_type, align 4
  %40 = tail call ptr @proto_tree_add_item(ptr noundef %1, i32 noundef %39, ptr noundef %0, i32 noundef %38, i32 noundef 4, i32 noundef 0) #6
  %41 = add i32 %38, 4
  br label %42

42:                                               ; preds = %3, %33, %24, %21, %16, %8
  %.0 = phi i32 [ %7, %3 ], [ %41, %33 ], [ %32, %24 ], [ %23, %21 ], [ %20, %16 ], [ %15, %8 ]
  ret i32 %.0
}